target datalayout = "e-m:e-p270:32:32-p271:32:32-p272:64:64-i64:64-i128:128-f80:128-n8:16:32:64-S128"
target triple = "x86_64-pc-linux-gnu"

%struct.ssl_st = type { i32, ptr, ptr, ptr, %struct.CRYPTO_REF_COUNT, ptr, %struct.crypto_ex_data_st }
%struct.CRYPTO_REF_COUNT = type { i32 }
%struct.crypto_ex_data_st = type { ptr, ptr }
%struct.OSSL_TIME = type { i64 }
%struct.srp_ctx_st = type { ptr, ptr, ptr, ptr, ptr, ptr, ptr, ptr, ptr, ptr, ptr, ptr, ptr, ptr, i32, i64 }
%struct.ssl_ctx_st = type { ptr, ptr, ptr, ptr, ptr, ptr, ptr, i64, ptr, ptr, i32, %struct.OSSL_TIME, ptr, ptr, ptr, %struct.anon.3, %struct.CRYPTO_REF_COUNT, ptr, ptr, ptr, ptr, ptr, ptr, ptr, ptr, ptr, %struct.crypto_ex_data_st, ptr, ptr, ptr, ptr, ptr, ptr, ptr, i64, i32, i32, i32, i64, ptr, ptr, i32, ptr, ptr, i32, i64, [32 x i8], ptr, ptr, ptr, i32, ptr, ptr, ptr, i64, i64, i64, i64, ptr, ptr, ptr, ptr, ptr, %struct.anon.4, ptr, ptr, ptr, ptr, %struct.srp_ctx_st, %struct.dane_ctx_st, ptr, ptr, ptr, ptr, i32, i32, ptr, ptr, i64, i64, ptr, ptr, ptr, i64, ptr, ptr, i32, ptr, ptr, ptr, [14 x i32], [24 x ptr], [14 x ptr], [14 x i64], i64, ptr, ptr, ptr, i64, i64, ptr, i64, i64, i32, i32, i32, i32, ptr, i64, ptr, i64, i64, ptr, ptr }
%struct.anon.3 = type { i32, i32, i32, i32, i32, i32, i32, i32, i32, i32, i32 }
%struct.anon.4 = type { ptr, ptr, [16 x i8], ptr, ptr, ptr, ptr, ptr, i32, i8, i64, ptr, i64, ptr, i64, ptr, i64, ptr, ptr, i64, ptr, ptr, ptr, i64, ptr, ptr, ptr, ptr, [32 x i8] }
%struct.dane_ctx_st = type { ptr, ptr, i8, i64 }

@.str = private unnamed_addr constant [25 x i8] c"../openssl/ssl/ssl_rsa.c\00", align 1
@__func__.SSL_use_certificate_ASN1 = private unnamed_addr constant [25 x i8] c"SSL_use_certificate_ASN1\00", align 1

; Function Attrs: nounwind uwtable
define i32 @SSL_use_certificate_ASN1(ptr noundef %0, ptr noundef %1, i32 noundef %2) #0 {
  %4 = alloca i32, align 4
  %5 = alloca ptr, align 8
  %6 = alloca ptr, align 8
  %7 = alloca i32, align 4
  %8 = alloca ptr, align 8
  %9 = alloca i32, align 4
  %10 = alloca i32, align 4
  store ptr %0, ptr %5, align 8, !tbaa !3
  store ptr %1, ptr %6, align 8, !tbaa !87
  store i32 %2, ptr %7, align 4, !tbaa !21
  call void @llvm.lifetime.start.p0(i64 8, ptr %8) #6
  call void @llvm.lifetime.start.p0(i64 4, ptr %9) #6
  %11 = load ptr, ptr %5, align 8, !tbaa !3
  %12 = getelementptr inbounds nuw %struct.ssl_st, ptr %11, i32 0, i32 1
  %13 = load ptr, ptr %12, align 8, !tbaa !89
  %14 = getelementptr inbounds nuw %struct.ssl_ctx_st, ptr %13, i32 0, i32 0
  %15 = load ptr, ptr %14, align 8, !tbaa !90
  %16 = load ptr, ptr %5, align 8, !tbaa !3
  %17 = getelementptr inbounds nuw %struct.ssl_st, ptr %16, i32 0, i32 1
  %18 = load ptr, ptr %17, align 8, !tbaa !89
  %19 = getelementptr inbounds nuw %struct.ssl_ctx_st, ptr %18, i32 0, i32 89
  %20 = load ptr, ptr %19, align 8, !tbaa !104
  %21 = call ptr @X509_new_ex(ptr noundef %15, ptr noundef %20)
  store ptr %21, ptr %8, align 8, !tbaa !8
  %22 = load ptr, ptr %8, align 8, !tbaa !8
  %23 = icmp eq ptr %22, null
  br i1 %23, label %24, label %25

24:                                               ; preds = %3
  call void @ERR_new()
  call void @ERR_set_debug(ptr noundef @.str, i32 noundef 118, ptr noundef @__func__.SSL_use_certificate_ASN1)
  call void (i32, i32, ptr, ...) @ERR_set_error(i32 noundef 20, i32 noundef 524301, ptr noundef null)
  store i32 0, ptr %4, align 4
  store i32 1, ptr %10, align 4
  br label %38

25:                                               ; preds = %3
  %26 = load i32, ptr %7, align 4, !tbaa !21
  %27 = sext i32 %26 to i64
  %28 = call ptr @d2i_X509(ptr noundef %8, ptr noundef %6, i64 noundef %27)
  %29 = icmp eq ptr %28, null
  br i1 %29, label %30, label %32

30:                                               ; preds = %25
  %31 = load ptr, ptr %8, align 8, !tbaa !8
  call void @X509_free(ptr noundef %31)
  call void @ERR_new()
  call void @ERR_set_debug(ptr noundef @.str, i32 noundef 124, ptr noundef @__func__.SSL_use_certificate_ASN1)
  call void (i32, i32, ptr, ...) @ERR_set_error(i32 noundef 20, i32 noundef 524301, ptr noundef null)
  store i32 0, ptr %4, align 4
  store i32 1, ptr %10, align 4
  br label %38

32:                                               ; preds = %25
  %33 = load ptr, ptr %5, align 8, !tbaa !3
  %34 = load ptr, ptr %8, align 8, !tbaa !8
  %35 = call i32 @SSL_use_certificate(ptr noundef %33, ptr noundef %34)
  store i32 %35, ptr %9, align 4, !tbaa !21
  %36 = load ptr, ptr %8, align 8, !tbaa !8
  call void @X509_free(ptr noundef %36)
  %37 = load i32, ptr %9, align 4, !tbaa !21
  store i32 %37, ptr %4, align 4
  store i32 1, ptr %10, align 4
  br label %38

38:                                               ; preds = %32, %30, %24
  call void @llvm.lifetime.end.p0(i64 4, ptr %9) #6
  call void @llvm.lifetime.end.p0(i64 8, ptr %8) #6
  %39 = load i32, ptr %4, align 4
  ret i32 %39
}