; Function Attrs: nounwind uwtable
define range(i32 0, 2) i32 @SSL_use_certificate_ASN1(ptr noundef %0, ptr noundef %1, i32 noundef %2) local_unnamed_addr #0 {
  %4 = alloca ptr, align 8
  %5 = alloca ptr, align 8
  store ptr %1, ptr %4, align 8, !tbaa !99
  call void @llvm.lifetime.start.p0(i64 8, ptr nonnull %5) #6
  %6 = getelementptr inbounds nuw i8, ptr %0, i64 8
  %7 = load ptr, ptr %6, align 8, !tbaa !81
  %8 = load ptr, ptr %7, align 8, !tbaa !82
  %9 = getelementptr inbounds nuw i8, ptr %7, i64 1152
  %10 = load ptr, ptr %9, align 8, !tbaa !96
  %11 = tail call ptr @X509_new_ex(ptr noundef %8, ptr noundef %10) #6
  store ptr %11, ptr %5, align 8, !tbaa !80
  %12 = icmp eq ptr %11, null
  br i1 %12, label %13, label %14

13:                                               ; preds = %3
  tail call void @ERR_new() #6
  tail call void @ERR_set_debug(ptr noundef nonnull @.str, i32 noundef 118, ptr noundef nonnull @__func__.SSL_use_certificate_ASN1) #6
  tail call void (i32, i32, ptr, ...) @ERR_set_error(i32 noundef 20, i32 noundef 524301, ptr noundef null) #6
  br label %23

14:                                               ; preds = %3
  %15 = sext i32 %2 to i64
  %16 = call ptr @d2i_X509(ptr noundef nonnull %5, ptr noundef nonnull %4, i64 noundef %15) #6
  %17 = icmp eq ptr %16, null
  %18 = load ptr, ptr %5, align 8, !tbaa !80
  br i1 %17, label %19, label %20

19:                                               ; preds = %14
  call void @X509_free(ptr noundef %18) #6
  call void @ERR_new() #6
  call void @ERR_set_debug(ptr noundef nonnull @.str, i32 noundef 124, ptr noundef nonnull @__func__.SSL_use_certificate_ASN1) #6
  call void (i32, i32, ptr, ...) @ERR_set_error(i32 noundef 20, i32 noundef 524301, ptr noundef null) #6
  br label %23

20:                                               ; preds = %14
  %21 = call i32 @SSL_use_certificate(ptr noundef nonnull %0, ptr noundef %18)
  %22 = load ptr, ptr %5, align 8, !tbaa !80
  call void @X509_free(ptr noundef %22) #6
  br label %23

23:                                               ; preds = %20, %19, %13
  %.0 = phi i32 [ 0, %13 ], [ 0, %19 ], [ %21, %20 ]
  call void @llvm.lifetime.end.p0(i64 8, ptr nonnull %5) #6
  ret i32 %.0
}